target datalayout = "e-m:e-p270:32:32-p271:32:32-p272:64:64-i64:64-i128:128-f80:128-n8:16:32:64-S128"
target triple = "x86_64-pc-linux-gnu"

%struct.JfrSamplerParams = type { i64, i64, i64, i8 }
%class.JfrEventThrottler = type <{ %class.JfrAdaptiveSampler.base, [4 x i8], %struct.JfrSamplerParams, i64, i64, double, i32, i8, i8, [2 x i8] }>
%class.JfrAdaptiveSampler.base = type <{ ptr, %class.JfrPRNG, ptr, ptr, ptr, double, double, i64, i64, i32 }>
%class.JfrPRNG = type { i64 }

@_ZL10_throttler = internal global ptr null, align 8

; Function Attrs: mustprogress nounwind uwtable
define hidden noundef ptr @_ZN17JfrEventThrottler9for_eventE10JfrEventId(i32 noundef %0) #1 align 2 {
  %2 = alloca i32, align 4
  store i32 %0, ptr %2, align 4
  %3 = load i32, ptr %2, align 4
  %4 = icmp eq i32 %3, 91
  br i1 %4, label %5, label %7

5:                                                ; preds = %1
  %6 = load ptr, ptr @_ZL10_throttler, align 8
  br label %8

7:                                                ; preds = %1
  br label %8

8:                                                ; preds = %7, %5
  %9 = phi ptr [ %6, %5 ], [ null, %7 ]
  ret ptr %9
}

; Function Attrs: mustprogress nounwind uwtable
define hidden noundef zeroext i1 @_ZN17JfrEventThrottler6acceptE10JfrEventIdl(i32 noundef %0, i64 noundef %1) #1 align 2 {
  %3 = alloca i1, align 1
  %4 = alloca i32, align 4
  %5 = alloca i64, align 8
  %6 = alloca ptr, align 8
  store i32 %0, ptr %4, align 4
  store i64 %1, ptr %5, align 8
  %7 = load i32, ptr %4, align 4
  %8 = call noundef ptr @_ZN17JfrEventThrottler9for_eventE10JfrEventId(i32 noundef %7)
  store ptr %8, ptr %6, align 8
  %9 = load ptr, ptr %6, align 8
  %10 = icmp eq ptr %9, null
  br i1 %10, label %11, label %12

11:                                               ; preds = %2
  store i1 true, ptr %3, align 1
  br label %24

12:                                               ; preds = %2
  %13 = load ptr, ptr @_ZL10_throttler, align 8
  %14 = getelementptr inbounds %class.JfrEventThrottler, ptr %13, i32 0, i32 7
  %15 = load i8, ptr %14, align 4
  %16 = trunc i8 %15 to i1
  br i1 %16, label %17, label %18

17:                                               ; preds = %12
  br label %22

18:                                               ; preds = %12
  %19 = load ptr, ptr @_ZL10_throttler, align 8
  %20 = load i64, ptr %5, align 8
  %21 = call noundef zeroext i1 @_ZN18JfrAdaptiveSampler6sampleEl(ptr noundef nonnull align 8 dereferenceable(76) %19, i64 noundef %20)
  br label %22

22:                                               ; preds = %18, %17
  %23 = phi i1 [ true, %17 ], [ %21, %18 ]
  store i1 %23, ptr %3, align 1
  br label %24

24:                                               ; preds = %22, %11
  %25 = load i1, ptr %3, align 1
  ret i1 %25
}