; Function Attrs: mustprogress nounwind uwtable
define hidden noundef zeroext i1 @_ZN17JfrEventThrottler6acceptE10JfrEventIdl(i32 noundef %0, i64 noundef %1) local_unnamed_addr #0 align 2 {
  %3 = icmp ne i32 %0, 91
  %4 = load ptr, ptr @_ZL10_throttler, align 8
  %5 = icmp eq ptr %4, null
  %6 = select i1 %3, i1 true, i1 %5
  br i1 %6, label %13, label %7

7:                                                ; preds = %2
  %8 = getelementptr inbounds i8, ptr %4, i64 140
  %9 = load i8, ptr %8, align 4
  %10 = trunc i8 %9 to i1
  br i1 %10, label %13, label %11

11:                                               ; preds = %7
  %12 = tail call noundef zeroext i1 @_ZN18JfrAdaptiveSampler6sampleEl(ptr noundef nonnull align 8 dereferenceable(76) %4, i64 noundef %1) #9
  br label %13

13:                                               ; preds = %11, %7, %2
  %.0 = phi i1 [ true, %2 ], [ %12, %11 ], [ true, %7 ]
  ret i1 %.0
}